; Function Attrs: mustprogress nofree norecurse nosync nounwind willreturn memory(readwrite, inaccessiblemem: none) uwtable
define noundef i64 @_ZN4base8internal4copyERKNS_16BasicStringPieceINSt7__cxx1112basic_stringItNS_20string16_char_traitsESaItEEEEEPtmm(ptr noundef nonnull readonly align 8 captures(none) dereferenceable(16) %0, ptr noundef writeonly captures(none) %1, i64 noundef %2, i64 noundef %3) local_unnamed_addr #4 {
  %5 = getelementptr inbounds nuw i8, ptr %0, i64 8
  %6 = load i64, ptr %5, align 8, !tbaa !38
  %7 = sub i64 %6, %3
  %.sroa.speculated.i = tail call noundef i64 @llvm.umin.i64(i64 %2, i64 %7)
  %8 = load ptr, ptr %0, align 8, !tbaa !35
  %9 = getelementptr inbounds nuw i16, ptr %8, i64 %3
  %10 = shl i64 %.sroa.speculated.i, 1
  tail call void @llvm.memcpy.p0.p0.i64(ptr align 2 %1, ptr align 2 %9, i64 %10, i1 false)
  ret i64 %.sroa.speculated.i
}